target datalayout = "e-m:e-p270:32:32-p271:32:32-p272:64:64-i64:64-i128:128-f80:128-n8:16:32:64-S128"
target triple = "x86_64-pc-linux-gnu"

%struct.redisServer = type { i32, i64, ptr, ptr, ptr, i32, i32, i32, i32, i32, ptr, ptr, ptr, ptr, ptr, i32, i32, i32, i32, i64, i32, i32, i32, i32, ptr, i32, i32, [41 x i8], i32, i64, i32, i32, i32, ptr, ptr, i32, i32, i64, ptr, ptr, ptr, ptr, [2 x i32], i32, i32, i32, i32, i32, i32, [16 x ptr], i32, ptr, ptr, i32, [8 x %struct.connListener], i32, %struct.connListener, ptr, ptr, ptr, ptr, ptr, ptr, ptr, ptr, ptr, ptr, i32, ptr, i32, ptr, [3 x %struct.pause_event], [256 x i8], ptr, i64, i32, i32, [128 x i32], i32, i32, i64, i32, i32, i32, i32, i32, i64, i64, i64, i64, i64, i64, i64, i64, i64, i64, double, i64, i64, i64, i64, i64, i64, i64, i64, i64, i64, i64, i64, i64, i64, i64, i64, i64, i64, i64, i64, i64, double, i64, i64, i64, i64, i64, ptr, i64, i64, i64, %struct.malloc_stats, i64, i64, i64, i64, i64, i64, i64, i64, i64, i64, i64, i64, double, [4 x i64], i64, i64, i64, i64, [128 x i64], [128 x i64], i64, i64, [7 x %struct.anon], i64, i64, i64, i64, i64, i64, [4 x %struct.durationStats], i32, i32, i32, i32, i32, i32, i32, i32, i32, i32, i32, i32, i64, i32, i32, i32, i32, i64, i64, i32, i32, i32, i32, i32, ptr, [3 x %struct.clientBufferLimitsConfig], i32, i32, i32, ptr, i32, i32, i32, i32, i32, i32, ptr, ptr, i32, i32, i64, i64, i64, i64, i64, i32, i32, ptr, i32, i32, i64, i64, i64, i64, i64, i32, i32, i64, i32, i32, i32, i32, i32, i32, i32, i32, ptr, i32, i64, i64, i64, i64, i32, ptr, i32, ptr, i32, i32, i32, i64, i64, i64, i64, i32, i32, i32, i32, i32, i32, ptr, i32, i32, ptr, i32, i32, i32, [2 x i32], i32, %struct.redisOpArray, i32, ptr, i32, ptr, i32, i32, i32, i32, i32, i32, i32, [41 x i8], [41 x i8], i64, i64, i64, i64, i32, i32, ptr, i64, i64, %struct.replDataBuf, i64, i64, i32, i32, i32, i32, i32, i32, i32, i32, i32, i64, ptr, i64, ptr, ptr, ptr, i32, i32, ptr, ptr, i32, i32, i32, i64, i64, i64, i64, ptr, ptr, i32, ptr, i64, i32, i32, i32, i64, i32, i32, i32, i32, ptr, i32, i32, [41 x i8], i64, i32, ptr, i32, i32, i64, i64, i32, i32, i32, i32, i32, i64, [3 x i32], i32, i32, i32, [10 x i32], ptr, ptr, i32, i64, ptr, ptr, i32, i32, i32, i32, i64, i64, i64, i64, i64, i64, i64, i64, i64, i64, i32, i32, i64, i64, i32, i64, i64, i64, i64, i64, ptr, ptr, i32, ptr, i32, i32, i32, i32, i64, i64, ptr, ptr, i32, i32, i32, i32, i32, ptr, ptr, ptr, i32, i32, i32, i32, i32, i32, i32, i64, i32, i32, i64, i32, i32, i32, i32, i32, i32, i32, i64, ptr, ptr, i64, ptr, i32, %struct.aclInfo, i32, i64, i32, i32, i32, %struct.redisTLSContextConfig, ptr, ptr, ptr, ptr, ptr, i64, i32, ptr, i32, i32, i32, i64, i32, ptr }
%struct.connListener = type { [16 x i32], i32, ptr, i32, i32, ptr, ptr }
%struct.pause_event = type { i32, i64 }
%struct.malloc_stats = type { i64, i64, i64, i64, i64, i64, i64, i64, i64, i64, i64 }
%struct.anon = type { i64, i64, [16 x i64], i32 }
%struct.durationStats = type { i64, i64, i64 }
%struct.clientBufferLimitsConfig = type { i64, i64, i64 }
%struct.redisOpArray = type { ptr, i32, i32 }
%struct.replDataBuf = type { ptr, i64, i64, i64, i64 }
%struct.aclInfo = type { i64, i64, i64, i64 }
%struct.redisTLSContextConfig = type { ptr, ptr, ptr, ptr, ptr, ptr, ptr, ptr, ptr, ptr, ptr, ptr, i32, i32, i32, i32 }
%struct.clusterState = type { ptr, i64, i32, i32, ptr, ptr, ptr, [16384 x ptr], [16384 x ptr], [16384 x ptr], [40 x i8], i64, i32, i32, i32, i64, i32, i64, ptr, i64, i32, i64, i32, [11 x i64], [11 x i64], i64, i64, [2048 x i8] }

@server = external global %struct.redisServer, align 8
@.str.190 = private unnamed_addr constant [30 x i8] c"Slot %d is already unassigned\00", align 1
@.str.191 = private unnamed_addr constant [24 x i8] c"Slot %d is already busy\00", align 1
@.str.192 = private unnamed_addr constant [33 x i8] c"Slot %d specified multiple times\00", align 1

; Function Attrs: nounwind uwtable
define dso_local i32 @checkSlotAssignmentsOrReply(ptr noundef %0, ptr noundef %1, i32 noundef %2, i32 noundef %3, i32 noundef %4) #0 {
  %6 = alloca i32, align 4
  %7 = alloca ptr, align 8
  %8 = alloca ptr, align 8
  %9 = alloca i32, align 4
  %10 = alloca i32, align 4
  %11 = alloca i32, align 4
  %12 = alloca i32, align 4
  %13 = alloca i32, align 4
  store ptr %0, ptr %7, align 8, !tbaa !119
  store ptr %1, ptr %8, align 8, !tbaa !52
  store i32 %2, ptr %9, align 4, !tbaa !46
  store i32 %3, ptr %10, align 4, !tbaa !46
  store i32 %4, ptr %11, align 4, !tbaa !46
  call void @llvm.lifetime.start.p0(i64 4, ptr %12) #16
  %14 = load i32, ptr %10, align 4, !tbaa !46
  store i32 %14, ptr %12, align 4, !tbaa !46
  br label %15

15:                                               ; preds = %61, %5
  %16 = load i32, ptr %12, align 4, !tbaa !46
  %17 = load i32, ptr %11, align 4, !tbaa !46
  %18 = icmp sle i32 %16, %17
  br i1 %18, label %19, label %64

19:                                               ; preds = %15
  %20 = load i32, ptr %9, align 4, !tbaa !46
  %21 = icmp ne i32 %20, 0
  br i1 %21, label %22, label %33

22:                                               ; preds = %19
  %23 = load ptr, ptr getelementptr inbounds nuw (%struct.redisServer, ptr @server, i32 0, i32 385), align 8, !tbaa !57
  %24 = getelementptr inbounds nuw %struct.clusterState, ptr %23, i32 0, i32 9
  %25 = load i32, ptr %12, align 4, !tbaa !46
  %26 = sext i32 %25 to i64
  %27 = getelementptr inbounds [16384 x ptr], ptr %24, i64 0, i64 %26
  %28 = load ptr, ptr %27, align 8, !tbaa !5
  %29 = icmp eq ptr %28, null
  br i1 %29, label %30, label %33

30:                                               ; preds = %22
  %31 = load ptr, ptr %7, align 8, !tbaa !119
  %32 = load i32, ptr %12, align 4, !tbaa !46
  call void (ptr, ptr, ...) @addReplyErrorFormat(ptr noundef %31, ptr noundef @.str.190, i32 noundef %32)
  store i32 -1, ptr %6, align 4
  store i32 1, ptr %13, align 4
  br label %65

33:                                               ; preds = %22, %19
  %34 = load i32, ptr %9, align 4, !tbaa !46
  %35 = icmp ne i32 %34, 0
  br i1 %35, label %47, label %36

36:                                               ; preds = %33
  %37 = load ptr, ptr getelementptr inbounds nuw (%struct.redisServer, ptr @server, i32 0, i32 385), align 8, !tbaa !57
  %38 = getelementptr inbounds nuw %struct.clusterState, ptr %37, i32 0, i32 9
  %39 = load i32, ptr %12, align 4, !tbaa !46
  %40 = sext i32 %39 to i64
  %41 = getelementptr inbounds [16384 x ptr], ptr %38, i64 0, i64 %40
  %42 = load ptr, ptr %41, align 8, !tbaa !5
  %43 = icmp ne ptr %42, null
  br i1 %43, label %44, label %47

44:                                               ; preds = %36
  %45 = load ptr, ptr %7, align 8, !tbaa !119
  %46 = load i32, ptr %12, align 4, !tbaa !46
  call void (ptr, ptr, ...) @addReplyErrorFormat(ptr noundef %45, ptr noundef @.str.191, i32 noundef %46)
  store i32 -1, ptr %6, align 4
  store i32 1, ptr %13, align 4
  br label %65

47:                                               ; preds = %36, %33
  br label %48

48:                                               ; preds = %47
  %49 = load ptr, ptr %8, align 8, !tbaa !52
  %50 = load i32, ptr %12, align 4, !tbaa !46
  %51 = sext i32 %50 to i64
  %52 = getelementptr inbounds i8, ptr %49, i64 %51
  %53 = load i8, ptr %52, align 1, !tbaa !54
  %54 = add i8 %53, 1
  store i8 %54, ptr %52, align 1, !tbaa !54
  %55 = zext i8 %53 to i32
  %56 = icmp eq i32 %55, 1
  br i1 %56, label %57, label %60

57:                                               ; preds = %48
  %58 = load ptr, ptr %7, align 8, !tbaa !119
  %59 = load i32, ptr %12, align 4, !tbaa !46
  call void (ptr, ptr, ...) @addReplyErrorFormat(ptr noundef %58, ptr noundef @.str.192, i32 noundef %59)
  store i32 -1, ptr %6, align 4
  store i32 1, ptr %13, align 4
  br label %65

60:                                               ; preds = %48
  br label %61

61:                                               ; preds = %60
  %62 = load i32, ptr %12, align 4, !tbaa !46
  %63 = add nsw i32 %62, 1
  store i32 %63, ptr %12, align 4, !tbaa !46
  br label %15, !llvm.loop !338

64:                                               ; preds = %15
  store i32 0, ptr %6, align 4
  store i32 1, ptr %13, align 4
  br label %65

65:                                               ; preds = %64, %57, %44, %30
  call void @llvm.lifetime.end.p0(i64 4, ptr %12) #16
  %66 = load i32, ptr %6, align 4
  ret i32 %66
}