; Function Attrs: nounwind uwtable
define dso_local range(i32 -1, 1) i32 @checkSlotAssignmentsOrReply(ptr noundef %0, ptr noundef captures(none) %1, i32 noundef %2, i32 noundef %3, i32 noundef %4) local_unnamed_addr #3 {
  %.not22 = icmp sgt i32 %3, %4
  br i1 %.not22, label %.loopexit, label %.lr.ph

.lr.ph:                                           ; preds = %5
  %.not17 = icmp eq i32 %2, 0
  %6 = sext i32 %3 to i64
  %7 = add i32 %4, 1
  br i1 %.not17, label %.critedge.us, label %.lr.ph.split

.critedge.us:                                     ; preds = %.lr.ph, %17
  %indvars.iv34 = phi i64 [ %indvars.iv.next35, %17 ], [ %6, %.lr.ph ]
  %8 = load ptr, ptr getelementptr inbounds nuw (i8, ptr @server, i64 7920), align 8, !tbaa !56
  %9 = getelementptr inbounds nuw i8, ptr %8, i64 262192
  %10 = getelementptr inbounds [16384 x ptr], ptr %9, i64 0, i64 %indvars.iv34
  %11 = load ptr, ptr %10, align 8, !tbaa !46
  %.not18.us = icmp eq ptr %11, null
  br i1 %.not18.us, label %12, label %.loopexit.sink.split

12:                                               ; preds = %.critedge.us
  %13 = getelementptr inbounds i8, ptr %1, i64 %indvars.iv34
  %14 = load i8, ptr %13, align 1, !tbaa !50
  %15 = add i8 %14, 1
  store i8 %15, ptr %13, align 1, !tbaa !50
  %16 = icmp eq i8 %14, 1
  br i1 %16, label %.loopexit.sink.split, label %17

17:                                               ; preds = %12
  %indvars.iv.next35 = add nsw i64 %indvars.iv34, 1
  %lftr.wideiv37 = trunc i64 %indvars.iv.next35 to i32
  %exitcond38.not = icmp eq i32 %7, %lftr.wideiv37
  br i1 %exitcond38.not, label %.loopexit, label %.critedge.us, !llvm.loop !304

.lr.ph.split:                                     ; preds = %.lr.ph, %28
  %indvars.iv = phi i64 [ %indvars.iv.next, %28 ], [ %6, %.lr.ph ]
  %18 = load ptr, ptr getelementptr inbounds nuw (i8, ptr @server, i64 7920), align 8, !tbaa !56
  %19 = getelementptr inbounds nuw i8, ptr %18, i64 262192
  %20 = getelementptr inbounds [16384 x ptr], ptr %19, i64 0, i64 %indvars.iv
  %21 = load ptr, ptr %20, align 8, !tbaa !46
  %22 = icmp eq ptr %21, null
  br i1 %22, label %.loopexit.sink.split, label %23

23:                                               ; preds = %.lr.ph.split
  %24 = getelementptr inbounds i8, ptr %1, i64 %indvars.iv
  %25 = load i8, ptr %24, align 1, !tbaa !50
  %26 = add i8 %25, 1
  store i8 %26, ptr %24, align 1, !tbaa !50
  %27 = icmp eq i8 %25, 1
  br i1 %27, label %.loopexit.sink.split, label %28

28:                                               ; preds = %23
  %indvars.iv.next = add nsw i64 %indvars.iv, 1
  %lftr.wideiv = trunc i64 %indvars.iv.next to i32
  %exitcond.not = icmp eq i32 %7, %lftr.wideiv
  br i1 %exitcond.not, label %.loopexit, label %.lr.ph.split, !llvm.loop !304

.loopexit.sink.split:                             ; preds = %23, %.lr.ph.split, %12, %.critedge.us
  %.us-phi26.in.sink = phi i64 [ %indvars.iv34, %.critedge.us ], [ %indvars.iv34, %12 ], [ %indvars.iv, %.lr.ph.split ], [ %indvars.iv, %23 ]
  %.str.192.sink = phi ptr [ @.str.192, %12 ], [ @.str.191, %.critedge.us ], [ @.str.192, %23 ], [ @.str.190, %.lr.ph.split ]
  %.us-phi26 = trunc i64 %.us-phi26.in.sink to i32
  tail call void (ptr, ptr, ...) @addReplyErrorFormat(ptr noundef %0, ptr noundef nonnull %.str.192.sink, i32 noundef %.us-phi26) #33
  br label %.loopexit

.loopexit:                                        ; preds = %28, %17, %.loopexit.sink.split, %5
  %.016 = phi i32 [ 0, %5 ], [ -1, %.loopexit.sink.split ], [ 0, %17 ], [ 0, %28 ]
  ret i32 %.016
}